; ModuleID = '44/114.c'
source_filename = "44/114.c"
target datalayout = "e-m:e-p270:32:32-p271:32:32-p272:64:64-i64:64-f80:128-n8:16:32:64-S128"
target triple = "x86_64-pc-linux-gnu"

@.str = private unnamed_addr constant [3 x i8] c"%d\00", align 1
@.str.1 = private unnamed_addr constant [3 x i8] c"0\0A\00", align 1
@.str.2 = private unnamed_addr constant [4 x i8] c"%d\0A\00", align 1
@.str.3 = private unnamed_addr constant [5 x i8] c"-%d\0A\00", align 1

; Function Attrs: noinline nounwind uwtable
define dso_local i32 @main() #0 {
  %1 = alloca i32, align 4
  %2 = alloca i32, align 4
  %3 = alloca i32, align 4
  %4 = alloca i32, align 4
  %5 = alloca i32, align 4
  store i32 0, i32* %1, align 4
  store i32 1, i32* %5, align 4
  br label %6

6:                                                ; preds = %60, %0
  %7 = load i32, i32* %5, align 4
  %8 = icmp sle i32 %7, 6
  br i1 %8, label %9, label %63

9:                                                ; preds = %6
  %10 = call i32 (i8*, ...) @__isoc99_scanf(i8* getelementptr inbounds ([3 x i8], [3 x i8]* @.str, i64 0, i64 0), i32* %3)
  %11 = load i32, i32* %3, align 4
  %12 = icmp eq i32 %11, 0
  br i1 %12, label %13, label %15

13:                                               ; preds = %9
  %14 = call i32 (i8*, ...) @printf(i8* getelementptr inbounds ([3 x i8], [3 x i8]* @.str.1, i64 0, i64 0))
  br label %15

15:                                               ; preds = %13, %9
  %16 = load i32, i32* %3, align 4
  %17 = icmp sgt i32 %16, 0
  br i1 %17, label %18, label %36

18:                                               ; preds = %15
  store i32 0, i32* %2, align 4
  br label %19

19:                                               ; preds = %22, %18
  %20 = load i32, i32* %3, align 4
  %21 = icmp ne i32 %20, 0
  br i1 %21, label %22, label %32

22:                                               ; preds = %19
  %23 = load i32, i32* %3, align 4
  %24 = srem i32 %23, 10
  store i32 %24, i32* %4, align 4
  %25 = load i32, i32* %4, align 4
  %26 = mul nsw i32 %25, 10
  %27 = load i32, i32* %2, align 4
  %28 = mul nsw i32 %27, 10
  %29 = add nsw i32 %26, %28
  store i32 %29, i32* %2, align 4
  %30 = load i32, i32* %3, align 4
  %31 = sdiv i32 %30, 10
  store i32 %31, i32* %3, align 4
  br label %19

32:                                               ; preds = %19
  %33 = load i32, i32* %2, align 4
  %34 = sdiv i32 %33, 10
  %35 = call i32 (i8*, ...) @printf(i8* getelementptr inbounds ([4 x i8], [4 x i8]* @.str.2, i64 0, i64 0), i32 %34)
  br label %36

36:                                               ; preds = %32, %15
  %37 = load i32, i32* %3, align 4
  %38 = icmp slt i32 %37, 0
  br i1 %38, label %39, label %59

39:                                               ; preds = %36
  store i32 0, i32* %2, align 4
  %40 = load i32, i32* %3, align 4
  %41 = sub nsw i32 0, %40
  store i32 %41, i32* %3, align 4
  br label %42

42:                                               ; preds = %45, %39
  %43 = load i32, i32* %3, align 4
  %44 = icmp ne i32 %43, 0
  br i1 %44, label %45, label %55

45:                                               ; preds = %42
  %46 = load i32, i32* %3, align 4
  %47 = srem i32 %46, 10
  store i32 %47, i32* %4, align 4
  %48 = load i32, i32* %4, align 4
  %49 = mul nsw i32 %48, 10
  %50 = load i32, i32* %2, align 4
  %51 = mul nsw i32 %50, 10
  %52 = add nsw i32 %49, %51
  store i32 %52, i32* %2, align 4
  %53 = load i32, i32* %3, align 4
  %54 = sdiv i32 %53, 10
  store i32 %54, i32* %3, align 4
  br label %42

55:                                               ; preds = %42
  %56 = load i32, i32* %2, align 4
  %57 = sdiv i32 %56, 10
  %58 = call i32 (i8*, ...) @printf(i8* getelementptr inbounds ([5 x i8], [5 x i8]* @.str.3, i64 0, i64 0), i32 %57)
  br label %59

59:                                               ; preds = %55, %36
  br label %60

60:                                               ; preds = %59
  %61 = load i32, i32* %5, align 4
  %62 = add nsw i32 %61, 1
  store i32 %62, i32* %5, align 4
  br label %6

63:                                               ; preds = %6
  %64 = load i32, i32* %1, align 4
  ret i32 %64
}

declare dso_local i32 @__isoc99_scanf(i8*, ...) #1

declare dso_local i32 @printf(i8*, ...) #1


!llvm.module.flags = !{!0}
!llvm.ident = !{!1}

!0 = !{i32 1, !"wchar_size", i32 4}
!1 = !{!"clang version 10.0.0-4ubuntu1 "}
