; ModuleID = 'source-C-CXX/43/114.c'
source_filename = "source-C-CXX/43/114.c"
target datalayout = "e-m:e-p270:32:32-p271:32:32-p272:64:64-i64:64-f80:128-n8:16:32:64-S128"
target triple = "x86_64-pc-linux-gnu"

@.str = private unnamed_addr constant [3 x i8] c"%d\00", align 1
@.str.2 = private unnamed_addr constant [4 x i8] c"%d\0A\00", align 1
@.str.3 = private unnamed_addr constant [5 x i8] c"-%d\0A\00", align 1
@str = private unnamed_addr constant [2 x i8] c"0\00", align 1

; Function Attrs: nofree nounwind sspstrong uwtable
define dso_local i32 @main() local_unnamed_addr #0 {
  %1 = alloca i32, align 4
  %2 = bitcast i32* %1 to i8*
  call void @llvm.lifetime.start.p0i8(i64 4, i8* nonnull %2) #4
  br label %3

3:                                                ; preds = %0, %44
  %4 = phi i32 [ 1, %0 ], [ %45, %44 ]
  %5 = call i32 (i8*, ...) @__isoc99_scanf(i8* getelementptr inbounds ([3 x i8], [3 x i8]* @.str, i64 0, i64 0), i32* nonnull %1)
  %6 = load i32, i32* %1, align 4, !tbaa !5
  %7 = icmp eq i32 %6, 0
  br i1 %7, label %8, label %11

8:                                                ; preds = %3
  %9 = call i32 @puts(i8* nonnull dereferenceable(1) getelementptr inbounds ([2 x i8], [2 x i8]* @str, i64 0, i64 0))
  %10 = load i32, i32* %1, align 4, !tbaa !5
  br label %11

11:                                               ; preds = %8, %3
  %12 = phi i32 [ %10, %8 ], [ %6, %3 ]
  %13 = icmp sgt i32 %12, 0
  br i1 %13, label %14, label %27

14:                                               ; preds = %11, %14
  %15 = phi i32 [ %19, %14 ], [ 0, %11 ]
  %16 = phi i32 [ %20, %14 ], [ %12, %11 ]
  %17 = srem i32 %16, 10
  %18 = add i32 %17, %15
  %19 = mul i32 %18, 10
  %20 = sdiv i32 %16, 10
  %21 = add i32 %16, 9
  %22 = icmp ult i32 %21, 19
  br i1 %22, label %23, label %14, !llvm.loop !9

23:                                               ; preds = %14
  store i32 %20, i32* %1, align 4, !tbaa !5
  %24 = sdiv i32 %19, 10
  %25 = call i32 (i8*, ...) @printf(i8* nonnull dereferenceable(1) getelementptr inbounds ([4 x i8], [4 x i8]* @.str.2, i64 0, i64 0), i32 %24)
  %26 = load i32, i32* %1, align 4, !tbaa !5
  br label %27

27:                                               ; preds = %23, %11
  %28 = phi i32 [ %26, %23 ], [ %12, %11 ]
  %29 = icmp slt i32 %28, 0
  br i1 %29, label %30, label %44

30:                                               ; preds = %27
  %31 = sub nsw i32 0, %28
  br label %32

32:                                               ; preds = %30, %32
  %33 = phi i32 [ %37, %32 ], [ 0, %30 ]
  %34 = phi i32 [ %38, %32 ], [ %31, %30 ]
  %35 = srem i32 %34, 10
  %36 = add i32 %35, %33
  %37 = mul i32 %36, 10
  %38 = sdiv i32 %34, 10
  %39 = add i32 %34, 9
  %40 = icmp ult i32 %39, 19
  br i1 %40, label %41, label %32, !llvm.loop !11

41:                                               ; preds = %32
  store i32 %38, i32* %1, align 4, !tbaa !5
  %42 = sdiv i32 %37, 10
  %43 = call i32 (i8*, ...) @printf(i8* nonnull dereferenceable(1) getelementptr inbounds ([5 x i8], [5 x i8]* @.str.3, i64 0, i64 0), i32 %42)
  br label %44

44:                                               ; preds = %27, %41
  %45 = add nuw nsw i32 %4, 1
  %46 = icmp eq i32 %45, 7
  br i1 %46, label %47, label %3, !llvm.loop !12

47:                                               ; preds = %44
  call void @llvm.lifetime.end.p0i8(i64 4, i8* nonnull %2) #4
  ret i32 0
}

; Function Attrs: argmemonly mustprogress nofree nosync nounwind willreturn
declare void @llvm.lifetime.start.p0i8(i64 immarg, i8* nocapture) #1

; Function Attrs: nofree nounwind
declare noundef i32 @__isoc99_scanf(i8* nocapture noundef readonly, ...) local_unnamed_addr #2

; Function Attrs: nofree nounwind
declare noundef i32 @printf(i8* nocapture noundef readonly, ...) local_unnamed_addr #2

; Function Attrs: argmemonly mustprogress nofree nosync nounwind willreturn
declare void @llvm.lifetime.end.p0i8(i64 immarg, i8* nocapture) #1

; Function Attrs: nofree nounwind
declare noundef i32 @puts(i8* nocapture noundef readonly) local_unnamed_addr #3


!llvm.module.flags = !{!0, !1, !2, !3}
!llvm.ident = !{!4}

!0 = !{i32 1, !"wchar_size", i32 4}
!1 = !{i32 7, !"PIC Level", i32 2}
!2 = !{i32 7, !"PIE Level", i32 2}
!3 = !{i32 7, !"uwtable", i32 1}
!4 = !{!"clang version 13.0.0"}
!5 = !{!6, !6, i64 0}
!6 = !{!"int", !7, i64 0}
!7 = !{!"omnipotent char", !8, i64 0}
!8 = !{!"Simple C/C++ TBAA"}
!9 = distinct !{!9, !10}
!10 = !{!"llvm.loop.mustprogress"}
!11 = distinct !{!11, !10}
!12 = distinct !{!12, !10}
